target datalayout = "e-m:e-p270:32:32-p271:32:32-p272:64:64-i64:64-i128:128-f80:128-n8:16:32:64-S128"
target triple = "x86_64-pc-linux-gnu"

%"class.folly::test::ThreadTimestamps" = type { %"class.std::vector" }
%"class.std::vector" = type { %"struct.std::_Vector_base" }
%"struct.std::_Vector_base" = type { %"struct.std::_Vector_base<folly::test::DSchedTimestamp, std::allocator<folly::test::DSchedTimestamp>>::_Vector_impl" }
%"struct.std::_Vector_base<folly::test::DSchedTimestamp, std::allocator<folly::test::DSchedTimestamp>>::_Vector_impl" = type { %"struct.std::_Vector_base<folly::test::DSchedTimestamp, std::allocator<folly::test::DSchedTimestamp>>::_Vector_impl_data" }
%"struct.std::_Vector_base<folly::test::DSchedTimestamp, std::allocator<folly::test::DSchedTimestamp>>::_Vector_impl_data" = type { ptr, ptr, ptr }
%"class.folly::test::DSchedTimestamp" = type { i64 }
%"struct.folly::test::DSchedThreadId" = type { i32 }

; Function Attrs: inlinehint mustprogress nounwind uwtable
define linkonce_odr noundef nonnull align 8 dereferenceable(8) ptr @_ZSt3maxImERKT_S2_S2_(ptr noundef nonnull align 8 dereferenceable(8) %0, ptr noundef nonnull align 8 dereferenceable(8) %1) #5 comdat {
  %3 = alloca ptr, align 8
  %4 = alloca ptr, align 8
  %5 = alloca ptr, align 8
  store ptr %0, ptr %4, align 8, !tbaa !110
  store ptr %1, ptr %5, align 8, !tbaa !110
  %6 = load ptr, ptr %4, align 8, !tbaa !110
  %7 = load i64, ptr %6, align 8, !tbaa !83
  %8 = load ptr, ptr %5, align 8, !tbaa !110
  %9 = load i64, ptr %8, align 8, !tbaa !83
  %10 = icmp ult i64 %7, %9
  br i1 %10, label %11, label %13

11:                                               ; preds = %2
  %12 = load ptr, ptr %5, align 8, !tbaa !110
  store ptr %12, ptr %3, align 8
  br label %15

13:                                               ; preds = %2
  %14 = load ptr, ptr %4, align 8, !tbaa !110
  store ptr %14, ptr %3, align 8
  br label %15

15:                                               ; preds = %13, %11
  %16 = load ptr, ptr %3, align 8
  ret ptr %16
}

; Function Attrs: mustprogress nounwind uwtable
define linkonce_odr void @_ZN5folly4test15DSchedTimestamp4syncERKS1_(ptr noundef nonnull align 8 dereferenceable(8) %0, ptr noundef nonnull align 8 dereferenceable(8) %1) #1 comdat align 2 {
  %3 = alloca ptr, align 8
  %4 = alloca ptr, align 8
  store ptr %0, ptr %3, align 8, !tbaa !100
  store ptr %1, ptr %4, align 8, !tbaa !100
  %5 = load ptr, ptr %3, align 8
  %6 = getelementptr inbounds nuw %"class.folly::test::DSchedTimestamp", ptr %5, i32 0, i32 0
  %7 = load ptr, ptr %4, align 8, !tbaa !100
  %8 = getelementptr inbounds nuw %"class.folly::test::DSchedTimestamp", ptr %7, i32 0, i32 0
  %9 = call noundef nonnull align 8 dereferenceable(8) ptr @_ZSt3maxImERKT_S2_S2_(ptr noundef nonnull align 8 dereferenceable(8) %6, ptr noundef nonnull align 8 dereferenceable(8) %8)
  %10 = load i64, ptr %9, align 8, !tbaa !83
  %11 = getelementptr inbounds nuw %"class.folly::test::DSchedTimestamp", ptr %5, i32 0, i32 0
  store i64 %10, ptr %11, align 8, !tbaa !101
  ret void
}

; Function Attrs: mustprogress nounwind uwtable
define linkonce_odr noundef zeroext i1 @_ZNK5folly4test15DSchedTimestamp11initializedEv(ptr noundef nonnull align 8 dereferenceable(8) %0) #1 comdat align 2 {
  %2 = alloca ptr, align 8
  store ptr %0, ptr %2, align 8, !tbaa !100
  %3 = load ptr, ptr %2, align 8
  %4 = getelementptr inbounds nuw %"class.folly::test::DSchedTimestamp", ptr %3, i32 0, i32 0
  %5 = load i64, ptr %4, align 8, !tbaa !101
  %6 = icmp ugt i64 %5, 0
  ret i1 %6
}

; Function Attrs: mustprogress nounwind uwtable
define linkonce_odr noundef nonnull align 8 dereferenceable(8) ptr @_ZNSt6vectorIN5folly4test15DSchedTimestampESaIS2_EEixEm(ptr noundef nonnull align 8 dereferenceable(24) %0, i64 noundef %1) #1 comdat align 2 {
  %3 = alloca ptr, align 8
  %4 = alloca i64, align 8
  store ptr %0, ptr %3, align 8, !tbaa !94
  store i64 %1, ptr %4, align 8, !tbaa !83
  %5 = load ptr, ptr %3, align 8
  %6 = getelementptr inbounds nuw %"struct.std::_Vector_base", ptr %5, i32 0, i32 0
  %7 = getelementptr inbounds nuw %"struct.std::_Vector_base<folly::test::DSchedTimestamp, std::allocator<folly::test::DSchedTimestamp>>::_Vector_impl_data", ptr %6, i32 0, i32 0
  %8 = load ptr, ptr %7, align 8, !tbaa !99
  %9 = load i64, ptr %4, align 8, !tbaa !83
  %10 = getelementptr inbounds nuw %"class.folly::test::DSchedTimestamp", ptr %8, i64 %9
  ret ptr %10
}

; Function Attrs: mustprogress nounwind uwtable
define linkonce_odr noundef i64 @_ZNKSt6vectorIN5folly4test15DSchedTimestampESaIS2_EE4sizeEv(ptr noundef nonnull align 8 dereferenceable(24) %0) #1 comdat align 2 {
  %2 = alloca ptr, align 8
  store ptr %0, ptr %2, align 8, !tbaa !94
  %3 = load ptr, ptr %2, align 8
  %4 = getelementptr inbounds nuw %"struct.std::_Vector_base", ptr %3, i32 0, i32 0
  %5 = getelementptr inbounds nuw %"struct.std::_Vector_base<folly::test::DSchedTimestamp, std::allocator<folly::test::DSchedTimestamp>>::_Vector_impl_data", ptr %4, i32 0, i32 1
  %6 = load ptr, ptr %5, align 8, !tbaa !96
  %7 = getelementptr inbounds nuw %"struct.std::_Vector_base", ptr %3, i32 0, i32 0
  %8 = getelementptr inbounds nuw %"struct.std::_Vector_base<folly::test::DSchedTimestamp, std::allocator<folly::test::DSchedTimestamp>>::_Vector_impl_data", ptr %7, i32 0, i32 0
  %9 = load ptr, ptr %8, align 8, !tbaa !99
  %10 = ptrtoint ptr %6 to i64
  %11 = ptrtoint ptr %9 to i64
  %12 = sub i64 %10, %11
  %13 = sdiv exact i64 %12, 8
  ret i64 %13
}

; Function Attrs: mustprogress uwtable
define void @_ZN5folly4test16ThreadTimestamps15setIfNotPresentENS0_14DSchedThreadIdENS0_15DSchedTimestampE(ptr noundef nonnull align 8 dereferenceable(24) %0, i32 %1, i64 %2) #6 align 2 {
  %4 = alloca %"struct.folly::test::DSchedThreadId", align 4
  %5 = alloca %"class.folly::test::DSchedTimestamp", align 8
  %6 = alloca ptr, align 8
  %7 = getelementptr inbounds nuw %"struct.folly::test::DSchedThreadId", ptr %4, i32 0, i32 0
  store i32 %1, ptr %7, align 4
  %8 = getelementptr inbounds nuw %"class.folly::test::DSchedTimestamp", ptr %5, i32 0, i32 0
  store i64 %2, ptr %8, align 8
  store ptr %0, ptr %6, align 8, !tbaa !91
  %9 = load ptr, ptr %6, align 8
  %10 = getelementptr inbounds nuw %"struct.folly::test::DSchedThreadId", ptr %4, i32 0, i32 0
  %11 = load i32, ptr %10, align 4, !tbaa !120
  %12 = zext i32 %11 to i64
  %13 = getelementptr inbounds nuw %"class.folly::test::ThreadTimestamps", ptr %9, i32 0, i32 0
  %14 = call noundef i64 @_ZNKSt6vectorIN5folly4test15DSchedTimestampESaIS2_EE4sizeEv(ptr noundef nonnull align 8 dereferenceable(24) %13) #2
  %15 = icmp uge i64 %12, %14
  br i1 %15, label %16, label %22

16:                                               ; preds = %3
  %17 = getelementptr inbounds nuw %"class.folly::test::ThreadTimestamps", ptr %9, i32 0, i32 0
  %18 = getelementptr inbounds nuw %"struct.folly::test::DSchedThreadId", ptr %4, i32 0, i32 0
  %19 = load i32, ptr %18, align 4, !tbaa !120
  %20 = add i32 %19, 1
  %21 = zext i32 %20 to i64
  call void @_ZNSt6vectorIN5folly4test15DSchedTimestampESaIS2_EE6resizeEm(ptr noundef nonnull align 8 dereferenceable(24) %17, i64 noundef %21)
  br label %22

22:                                               ; preds = %16, %3
  %23 = getelementptr inbounds nuw %"class.folly::test::ThreadTimestamps", ptr %9, i32 0, i32 0
  %24 = getelementptr inbounds nuw %"struct.folly::test::DSchedThreadId", ptr %4, i32 0, i32 0
  %25 = load i32, ptr %24, align 4, !tbaa !120
  %26 = zext i32 %25 to i64
  %27 = call noundef nonnull align 8 dereferenceable(8) ptr @_ZNSt6vectorIN5folly4test15DSchedTimestampESaIS2_EEixEm(ptr noundef nonnull align 8 dereferenceable(24) %23, i64 noundef %26) #2
  %28 = call noundef zeroext i1 @_ZNK5folly4test15DSchedTimestamp11initializedEv(ptr noundef nonnull align 8 dereferenceable(8) %27)
  br i1 %28, label %35, label %29

29:                                               ; preds = %22
  %30 = getelementptr inbounds nuw %"class.folly::test::ThreadTimestamps", ptr %9, i32 0, i32 0
  %31 = getelementptr inbounds nuw %"struct.folly::test::DSchedThreadId", ptr %4, i32 0, i32 0
  %32 = load i32, ptr %31, align 4, !tbaa !120
  %33 = zext i32 %32 to i64
  %34 = call noundef nonnull align 8 dereferenceable(8) ptr @_ZNSt6vectorIN5folly4test15DSchedTimestampESaIS2_EEixEm(ptr noundef nonnull align 8 dereferenceable(24) %30, i64 noundef %33) #2
  call void @_ZN5folly4test15DSchedTimestamp4syncERKS1_(ptr noundef nonnull align 8 dereferenceable(8) %34, ptr noundef nonnull align 8 dereferenceable(8) %5)
  br label %35

35:                                               ; preds = %29, %22
  ret void
}