; Function Attrs: mustprogress uwtable
define void @_ZN5folly4test16ThreadTimestamps15setIfNotPresentENS0_14DSchedThreadIdENS0_15DSchedTimestampE(ptr noundef nonnull align 8 dereferenceable(24) %0, i32 %1, i64 %2) local_unnamed_addr #7 align 2 {
  %4 = zext i32 %1 to i64
  %5 = getelementptr inbounds nuw i8, ptr %0, i64 8
  %6 = load ptr, ptr %5, align 8, !tbaa !27
  %7 = load ptr, ptr %0, align 8, !tbaa !30
  %8 = ptrtoint ptr %6 to i64
  %9 = ptrtoint ptr %7 to i64
  %10 = sub i64 %8, %9
  %11 = ashr exact i64 %10, 3
  %.not = icmp ugt i64 %11, %4
  br i1 %.not, label %15, label %12

12:                                               ; preds = %3
  %13 = add i32 %1, 1
  %14 = zext i32 %13 to i64
  tail call void @_ZNSt6vectorIN5folly4test15DSchedTimestampESaIS2_EE6resizeEm(ptr noundef nonnull align 8 dereferenceable(24) %0, i64 noundef %14)
  %.pre = load ptr, ptr %0, align 8, !tbaa !30
  br label %15

15:                                               ; preds = %12, %3
  %16 = phi ptr [ %.pre, %12 ], [ %7, %3 ]
  %17 = getelementptr inbounds nuw %"class.folly::test::DSchedTimestamp", ptr %16, i64 %4
  %18 = load i64, ptr %17, align 8, !tbaa !32
  %.not4 = icmp eq i64 %18, 0
  br i1 %.not4, label %19, label %20

19:                                               ; preds = %15
  store i64 %2, ptr %17, align 8, !tbaa !32
  br label %20

20:                                               ; preds = %19, %15
  ret void
}